; Function Attrs: nounwind sspstrong uwtable
define internal fastcc i32 @parse_proto_version(i64 noundef %0) unnamed_addr #0 {
  %2 = alloca i64, align 8
  store i64 %0, ptr %2, align 8, !tbaa !10
  %3 = icmp eq i64 %0, 4
  br i1 %3, label %47, label %4

4:                                                ; preds = %1
  %5 = and i64 %0, 1
  %.not.i = icmp eq i64 %5, 0
  br i1 %.not.i, label %6, label %15

6:                                                ; preds = %4
  %7 = icmp eq i64 %0, 0
  %8 = and i64 %0, 6
  %9 = icmp ne i64 %8, 0
  %10 = or i1 %7, %9
  br i1 %10, label %rb_integer_type_p.exit.thread9, label %rb_integer_type_p.exit

rb_integer_type_p.exit:                           ; preds = %6
  %11 = inttoptr i64 %0 to ptr
  %12 = load i64, ptr %11, align 8, !tbaa !18
  %13 = and i64 %12, 31
  %14 = icmp eq i64 %13, 10
  br i1 %14, label %17, label %RB_SYMBOL_P.exit

15:                                               ; preds = %4
  %16 = tail call i64 @rb_fix2int(i64 noundef %0) #9
  br label %rb_num2int_inline.exit

17:                                               ; preds = %rb_integer_type_p.exit
  %18 = tail call i64 @rb_num2int(i64 noundef %0) #9
  br label %rb_num2int_inline.exit

rb_num2int_inline.exit:                           ; preds = %15, %17
  %.0.i7 = phi i64 [ %16, %15 ], [ %18, %17 ]
  %19 = trunc i64 %.0.i7 to i32
  br label %47

rb_integer_type_p.exit.thread9:                   ; preds = %6
  %20 = and i64 %0, 254
  %21 = icmp eq i64 %20, 12
  br i1 %21, label %RB_SYMBOL_P.exit.thread, label %RB_SYMBOL_P.exit.thread11

RB_SYMBOL_P.exit:                                 ; preds = %rb_integer_type_p.exit
  %22 = inttoptr i64 %0 to ptr
  %23 = load i64, ptr %22, align 8, !tbaa !18
  %24 = and i64 %23, 31
  %25 = icmp eq i64 %24, 20
  br i1 %25, label %RB_SYMBOL_P.exit.thread, label %RB_SYMBOL_P.exit.thread11

RB_SYMBOL_P.exit.thread:                          ; preds = %rb_integer_type_p.exit.thread9, %RB_SYMBOL_P.exit
  %26 = tail call i64 @rb_sym2str(i64 noundef %0) #9
  store i64 %26, ptr %2, align 8, !tbaa !10
  br label %RB_SYMBOL_P.exit.thread11

RB_SYMBOL_P.exit.thread11:                        ; preds = %rb_integer_type_p.exit.thread9, %RB_SYMBOL_P.exit.thread, %RB_SYMBOL_P.exit
  %27 = call i64 @rb_string_value(ptr noundef nonnull %2) #9
  %28 = load i64, ptr %2, align 8, !tbaa !10
  %29 = inttoptr i64 %28 to ptr
  %30 = load i64, ptr %29, align 8, !tbaa !18, !noalias !58
  %31 = and i64 %30, 8192
  %.not.i.i = icmp eq i64 %31, 0
  %32 = getelementptr inbounds nuw i8, ptr %29, i64 24
  %33 = getelementptr inbounds nuw i8, ptr %29, i64 16
  %34 = load i64, ptr %33, align 8, !tbaa !37
  br i1 %.not.i.i, label %RSTRING_PTR.exit.us, label %RB_SYMBOL_P.exit.thread11.split

RSTRING_PTR.exit.us:                              ; preds = %RB_SYMBOL_P.exit.thread11, %38
  %indvars.iv21 = phi i64 [ %indvars.iv.next22, %38 ], [ 0, %RB_SYMBOL_P.exit.thread11 ]
  %35 = getelementptr inbounds nuw [6 x %struct.anon.0], ptr @parse_proto_version.map, i64 0, i64 %indvars.iv21
  %36 = load ptr, ptr %35, align 16, !tbaa !61
  %37 = call i32 @strncmp(ptr noundef %36, ptr noundef nonnull %32, i64 noundef %34) #12
  %.not.us = icmp eq i32 %37, 0
  br i1 %.not.us, label %.split14.us, label %38

38:                                               ; preds = %RSTRING_PTR.exit.us
  %indvars.iv.next22 = add nuw nsw i64 %indvars.iv21, 1
  %exitcond24.not = icmp eq i64 %indvars.iv.next22, 6
  br i1 %exitcond24.not, label %.split.us, label %RSTRING_PTR.exit.us, !llvm.loop !63

RB_SYMBOL_P.exit.thread11.split:                  ; preds = %RB_SYMBOL_P.exit.thread11
  %.sroa.2.0.copyload.i = load ptr, ptr %32, align 8
  br label %RSTRING_PTR.exit

39:                                               ; preds = %RSTRING_PTR.exit
  %indvars.iv.next = add nuw nsw i64 %indvars.iv, 1
  %exitcond.not = icmp eq i64 %indvars.iv.next, 6
  br i1 %exitcond.not, label %.split.us, label %RSTRING_PTR.exit, !llvm.loop !63

RSTRING_PTR.exit:                                 ; preds = %RB_SYMBOL_P.exit.thread11.split, %39
  %indvars.iv = phi i64 [ 0, %RB_SYMBOL_P.exit.thread11.split ], [ %indvars.iv.next, %39 ]
  %40 = getelementptr inbounds nuw [6 x %struct.anon.0], ptr @parse_proto_version.map, i64 0, i64 %indvars.iv
  %41 = load ptr, ptr %40, align 16, !tbaa !61
  %42 = call i32 @strncmp(ptr noundef %41, ptr noundef %.sroa.2.0.copyload.i, i64 noundef %34) #12
  %.not = icmp eq i32 %42, 0
  br i1 %.not, label %.split14.us, label %39

.split14.us:                                      ; preds = %RSTRING_PTR.exit, %RSTRING_PTR.exit.us
  %43 = phi i64 [ %indvars.iv21, %RSTRING_PTR.exit.us ], [ %indvars.iv, %RSTRING_PTR.exit ]
  %44 = getelementptr inbounds nuw [6 x %struct.anon.0], ptr @parse_proto_version.map, i64 0, i64 %43, i32 1
  %45 = load i32, ptr %44, align 8, !tbaa !64
  br label %47

.split.us:                                        ; preds = %39, %38
  %46 = load i64, ptr @rb_eArgError, align 8, !tbaa !10
  call void (i64, ptr, ...) @rb_raise(i64 noundef %46, ptr noundef nonnull @.str.194, i64 noundef %28) #10
  unreachable

47:                                               ; preds = %1, %.split14.us, %rb_num2int_inline.exit
  %.05 = phi i32 [ %19, %rb_num2int_inline.exit ], [ %45, %.split14.us ], [ 0, %1 ]
  ret i32 %.05
}